target datalayout = "e-m:e-p270:32:32-p271:32:32-p272:64:64-i64:64-i128:128-f80:128-n8:16:32:64-S128"
target triple = "x86_64-pc-linux-gnu"

%struct.lua_TValue = type { %union.Value, [1 x i32], i32 }
%union.Value = type { ptr }
%struct.lua_State = type { i8, i8, i8, i8, i8, i8, i8, ptr, ptr, ptr, ptr, ptr, ptr, ptr, ptr, i32, i32, i16, i16, i32, ptr, ptr, ptr, ptr, ptr }
%struct.GCheader = type { i8, i8, i8 }
%struct.global_State = type { %struct.stringtable, ptr, ptr, i8, i8, ptr, ptr, ptr, i64, i64, i32, i32, i32, [40 x ptr], [40 x ptr], ptr, ptr, ptr, [256 x i64], ptr, %struct.UpVal, [11 x ptr], [11 x ptr], [21 x ptr], %struct.lua_TValue, %struct.lua_TValue, i32, ptr, i64, [4 x i64], %struct.lua_Callbacks, %struct.lua_ExecutionCallbacks, [128 x ptr], [128 x ptr], [128 x ptr], %struct.GCStats }
%struct.stringtable = type { ptr, i32, i32 }
%struct.UpVal = type { i8, i8, i8, i8, ptr, %union.anon.3 }
%union.anon.3 = type { %struct.anon.4 }
%struct.anon.4 = type { ptr, ptr, ptr }
%struct.lua_Callbacks = type { ptr, ptr, ptr, ptr, ptr, ptr, ptr, ptr, ptr, ptr }
%struct.lua_ExecutionCallbacks = type { ptr, ptr, ptr, ptr, ptr, ptr, ptr }
%struct.GCStats = type { [32 x i32], i32, i32, i64, i64, i64, double, double, double }
%struct.Udata = type { i8, i8, i8, i8, i32, ptr, %union.anon }
%union.anon = type { %union.L_Umaxalign }
%union.L_Umaxalign = type { double }

; Function Attrs: mustprogress uwtable
define dso_local noundef ptr @_Z34lua_newuserdatataggedwithmetatableP9lua_Statemi(ptr noundef %0, i64 noundef %1, i32 noundef %2) #0 {
  %4 = alloca ptr, align 8
  %5 = alloca i64, align 8
  %6 = alloca i32, align 4
  %7 = alloca ptr, align 8
  %8 = alloca ptr, align 8
  %9 = alloca ptr, align 8
  store ptr %0, ptr %4, align 8, !tbaa !4
  store i64 %1, ptr %5, align 8, !tbaa !69
  store i32 %2, ptr %6, align 4, !tbaa !9
  %10 = load ptr, ptr %4, align 8, !tbaa !4
  %11 = getelementptr inbounds nuw %struct.lua_State, ptr %10, i32 0, i32 9
  %12 = load ptr, ptr %11, align 8, !tbaa !33
  %13 = getelementptr inbounds nuw %struct.global_State, ptr %12, i32 0, i32 9
  %14 = load i64, ptr %13, align 8, !tbaa !34
  %15 = load ptr, ptr %4, align 8, !tbaa !4
  %16 = getelementptr inbounds nuw %struct.lua_State, ptr %15, i32 0, i32 9
  %17 = load ptr, ptr %16, align 8, !tbaa !33
  %18 = getelementptr inbounds nuw %struct.global_State, ptr %17, i32 0, i32 8
  %19 = load i64, ptr %18, align 8, !tbaa !48
  %20 = icmp uge i64 %14, %19
  br i1 %20, label %21, label %24

21:                                               ; preds = %3
  %22 = load ptr, ptr %4, align 8, !tbaa !4
  %23 = call noundef i64 @_Z9luaC_stepP9lua_Stateb(ptr noundef %22, i1 noundef zeroext true)
  br label %25

24:                                               ; preds = %3
  br label %25

25:                                               ; preds = %24, %21
  %26 = load ptr, ptr %4, align 8, !tbaa !4
  %27 = getelementptr inbounds %struct.lua_State, ptr %26, i64 0
  %28 = getelementptr inbounds nuw %struct.GCheader, ptr %27, i32 0, i32 1
  %29 = load i8, ptr %28, align 1, !tbaa !25
  %30 = zext i8 %29 to i32
  %31 = and i32 %30, 4
  %32 = icmp ne i32 %31, 0
  br i1 %32, label %33, label %39

33:                                               ; preds = %25
  %34 = load ptr, ptr %4, align 8, !tbaa !4
  %35 = load ptr, ptr %4, align 8, !tbaa !4
  %36 = getelementptr inbounds %struct.lua_State, ptr %35, i64 0
  %37 = load ptr, ptr %4, align 8, !tbaa !4
  %38 = getelementptr inbounds nuw %struct.lua_State, ptr %37, i32 0, i32 22
  call void @_Z16luaC_barrierbackP9lua_StateP8GCObjectPS2_(ptr noundef %34, ptr noundef %36, ptr noundef %38)
  br label %39

39:                                               ; preds = %33, %25
  call void @llvm.lifetime.start.p0(i64 8, ptr %7) #11
  %40 = load ptr, ptr %4, align 8, !tbaa !4
  %41 = load i64, ptr %5, align 8, !tbaa !69
  %42 = load i32, ptr %6, align 4, !tbaa !9
  %43 = call noundef ptr @_Z13luaU_newudataP9lua_Statemi(ptr noundef %40, i64 noundef %41, i32 noundef %42)
  store ptr %43, ptr %7, align 8, !tbaa !123
  call void @llvm.lifetime.start.p0(i64 8, ptr %8) #11
  %44 = load ptr, ptr %4, align 8, !tbaa !4
  %45 = getelementptr inbounds nuw %struct.lua_State, ptr %44, i32 0, i32 9
  %46 = load ptr, ptr %45, align 8, !tbaa !33
  %47 = getelementptr inbounds nuw %struct.global_State, ptr %46, i32 0, i32 33
  %48 = load i32, ptr %6, align 4, !tbaa !9
  %49 = sext i32 %48 to i64
  %50 = getelementptr inbounds [128 x ptr], ptr %47, i64 0, i64 %49
  %51 = load ptr, ptr %50, align 8, !tbaa !92
  store ptr %51, ptr %8, align 8, !tbaa !92
  %52 = load ptr, ptr %8, align 8, !tbaa !92
  %53 = load ptr, ptr %7, align 8, !tbaa !123
  %54 = getelementptr inbounds nuw %struct.Udata, ptr %53, i32 0, i32 5
  store ptr %52, ptr %54, align 8, !tbaa !98
  call void @llvm.lifetime.start.p0(i64 8, ptr %9) #11
  %55 = load ptr, ptr %4, align 8, !tbaa !4
  %56 = getelementptr inbounds nuw %struct.lua_State, ptr %55, i32 0, i32 7
  %57 = load ptr, ptr %56, align 8, !tbaa !23
  store ptr %57, ptr %9, align 8, !tbaa !11
  %58 = load ptr, ptr %7, align 8, !tbaa !123
  %59 = load ptr, ptr %9, align 8, !tbaa !11
  %60 = getelementptr inbounds nuw %struct.lua_TValue, ptr %59, i32 0, i32 0
  store ptr %58, ptr %60, align 8, !tbaa !25
  %61 = load ptr, ptr %9, align 8, !tbaa !11
  %62 = getelementptr inbounds nuw %struct.lua_TValue, ptr %61, i32 0, i32 2
  store i32 8, ptr %62, align 4, !tbaa !49
  call void @llvm.lifetime.end.p0(i64 8, ptr %9) #11
  %63 = load ptr, ptr %4, align 8, !tbaa !4
  %64 = getelementptr inbounds nuw %struct.lua_State, ptr %63, i32 0, i32 7
  %65 = load ptr, ptr %64, align 8, !tbaa !23
  %66 = getelementptr inbounds nuw %struct.lua_TValue, ptr %65, i32 1
  store ptr %66, ptr %64, align 8, !tbaa !23
  %67 = load ptr, ptr %7, align 8, !tbaa !123
  %68 = getelementptr inbounds nuw %struct.Udata, ptr %67, i32 0, i32 6
  %69 = getelementptr inbounds [1 x i8], ptr %68, i64 0, i64 0
  call void @llvm.lifetime.end.p0(i64 8, ptr %8) #11
  call void @llvm.lifetime.end.p0(i64 8, ptr %7) #11
  ret ptr %69
}