; Function Attrs: mustprogress uwtable
define dso_local noundef nonnull ptr @_Z34lua_newuserdatataggedwithmetatableP9lua_Statemi(ptr noundef %0, i64 noundef %1, i32 noundef %2) local_unnamed_addr #3 {
  %4 = getelementptr inbounds nuw i8, ptr %0, i64 24
  %5 = load ptr, ptr %4, align 8, !tbaa !30
  %6 = getelementptr inbounds nuw i8, ptr %5, i64 72
  %7 = load i64, ptr %6, align 8, !tbaa !31
  %8 = getelementptr inbounds nuw i8, ptr %5, i64 64
  %9 = load i64, ptr %8, align 8, !tbaa !46
  %.not = icmp ult i64 %7, %9
  br i1 %.not, label %12, label %10

10:                                               ; preds = %3
  %11 = tail call noundef i64 @_Z9luaC_stepP9lua_Stateb(ptr noundef nonnull %0, i1 noundef zeroext true)
  br label %12

12:                                               ; preds = %3, %10
  %13 = getelementptr inbounds nuw i8, ptr %0, i64 1
  %14 = load i8, ptr %13, align 1, !tbaa !21
  %15 = and i8 %14, 4
  %.not19 = icmp eq i8 %15, 0
  br i1 %.not19, label %18, label %16

16:                                               ; preds = %12
  %17 = getelementptr inbounds nuw i8, ptr %0, i64 104
  tail call void @_Z16luaC_barrierbackP9lua_StateP8GCObjectPS2_(ptr noundef nonnull %0, ptr noundef nonnull %0, ptr noundef nonnull %17)
  br label %18

18:                                               ; preds = %16, %12
  %19 = tail call noundef ptr @_Z13luaU_newudataP9lua_Statemi(ptr noundef nonnull %0, i64 noundef %1, i32 noundef %2)
  %20 = load ptr, ptr %4, align 8, !tbaa !30
  %21 = getelementptr inbounds nuw i8, ptr %20, i64 4448
  %22 = sext i32 %2 to i64
  %23 = getelementptr inbounds [128 x ptr], ptr %21, i64 0, i64 %22
  %24 = load ptr, ptr %23, align 8, !tbaa !74
  %25 = getelementptr inbounds nuw i8, ptr %19, i64 8
  store ptr %24, ptr %25, align 8, !tbaa !81
  %26 = getelementptr inbounds nuw i8, ptr %0, i64 8
  %27 = load ptr, ptr %26, align 8, !tbaa !19
  store ptr %19, ptr %27, align 8, !tbaa !21
  %28 = getelementptr inbounds nuw i8, ptr %27, i64 12
  store i32 8, ptr %28, align 4, !tbaa !47
  %29 = load ptr, ptr %26, align 8, !tbaa !19
  %30 = getelementptr inbounds nuw i8, ptr %29, i64 16
  store ptr %30, ptr %26, align 8, !tbaa !19
  %31 = getelementptr inbounds nuw i8, ptr %19, i64 16
  ret ptr %31
}